target datalayout = "e-m:e-p270:32:32-p271:32:32-p272:64:64-i64:64-i128:128-f80:128-n8:16:32:64-S128"
target triple = "x86_64-pc-linux-gnu"

%struct.SDL_Surface = type { i32, i32, i32, i32, i32, ptr, i32, ptr, i32, i32, ptr, i32, ptr, i32, ptr, i32, %struct.SDL_Rect, %struct.SDL_BlitMap }
%struct.SDL_Rect = type { i32, i32, i32, i32 }
%struct.SDL_BlitMap = type { i32, ptr, ptr, %struct.SDL_BlitInfo, i32, i32 }
%struct.SDL_BlitInfo = type { ptr, ptr, i32, i32, i32, i32, ptr, ptr, i32, i32, i32, i32, ptr, ptr, ptr, ptr, ptr, ptr, i32, i32, i8, i8, i8, i8 }

@SDL_surface_magic = internal global i8 0, align 1
@.str = private unnamed_addr constant [26 x i8] c"Parameter '%s' is invalid\00", align 1
@.str.5 = private unnamed_addr constant [8 x i8] c"surface\00", align 1

; Function Attrs: nounwind uwtable
define hidden zeroext i1 @SDL_SurfaceValid(ptr noundef %0) #0 {
  %2 = alloca ptr, align 8
  store ptr %0, ptr %2, align 8
  %3 = load ptr, ptr %2, align 8
  %4 = icmp ne ptr %3, null
  br i1 %4, label %5, label %10

5:                                                ; preds = %1
  %6 = load ptr, ptr %2, align 8
  %7 = getelementptr inbounds nuw %struct.SDL_Surface, ptr %6, i32 0, i32 7
  %8 = load ptr, ptr %7, align 8
  %9 = icmp eq ptr %8, @SDL_surface_magic
  br label %10

10:                                               ; preds = %5, %1
  %11 = phi i1 [ false, %1 ], [ %9, %5 ]
  ret i1 %11
}

; Function Attrs: nounwind uwtable
define hidden zeroext i1 @SDL_GetSurfaceBlendMode_REAL(ptr noundef %0, ptr noundef %1) #0 {
  %3 = alloca i1, align 1
  %4 = alloca ptr, align 8
  %5 = alloca ptr, align 8
  store ptr %0, ptr %4, align 8
  store ptr %1, ptr %5, align 8
  %6 = load ptr, ptr %5, align 8
  %7 = icmp ne ptr %6, null
  br i1 %7, label %8, label %10

8:                                                ; preds = %2
  %9 = load ptr, ptr %5, align 8
  store i32 2147483647, ptr %9, align 4
  br label %10

10:                                               ; preds = %8, %2
  %11 = load ptr, ptr %4, align 8
  %12 = call zeroext i1 @SDL_SurfaceValid(ptr noundef %11)
  br i1 %12, label %15, label %13

13:                                               ; preds = %10
  %14 = call zeroext i1 (ptr, ...) @SDL_SetError_REAL(ptr noundef @.str, ptr noundef @.str.5)
  store i1 %14, ptr %3, align 1
  br label %41

15:                                               ; preds = %10
  %16 = load ptr, ptr %5, align 8
  %17 = icmp ne ptr %16, null
  br i1 %17, label %19, label %18

18:                                               ; preds = %15
  store i1 true, ptr %3, align 1
  br label %41

19:                                               ; preds = %15
  %20 = load ptr, ptr %4, align 8
  %21 = getelementptr inbounds nuw %struct.SDL_Surface, ptr %20, i32 0, i32 17
  %22 = getelementptr inbounds nuw %struct.SDL_BlitMap, ptr %21, i32 0, i32 3
  %23 = getelementptr inbounds nuw %struct.SDL_BlitInfo, ptr %22, i32 0, i32 18
  %24 = load i32, ptr %23, align 8
  %25 = and i32 %24, 1008
  switch i32 %25, label %38 [
    i32 16, label %26
    i32 32, label %28
    i32 64, label %30
    i32 128, label %32
    i32 256, label %34
    i32 512, label %36
  ]

26:                                               ; preds = %19
  %27 = load ptr, ptr %5, align 8
  store i32 1, ptr %27, align 4
  br label %40

28:                                               ; preds = %19
  %29 = load ptr, ptr %5, align 8
  store i32 16, ptr %29, align 4
  br label %40

30:                                               ; preds = %19
  %31 = load ptr, ptr %5, align 8
  store i32 2, ptr %31, align 4
  br label %40

32:                                               ; preds = %19
  %33 = load ptr, ptr %5, align 8
  store i32 32, ptr %33, align 4
  br label %40

34:                                               ; preds = %19
  %35 = load ptr, ptr %5, align 8
  store i32 4, ptr %35, align 4
  br label %40

36:                                               ; preds = %19
  %37 = load ptr, ptr %5, align 8
  store i32 8, ptr %37, align 4
  br label %40

38:                                               ; preds = %19
  %39 = load ptr, ptr %5, align 8
  store i32 0, ptr %39, align 4
  br label %40

40:                                               ; preds = %38, %36, %34, %32, %30, %28, %26
  store i1 true, ptr %3, align 1
  br label %41

41:                                               ; preds = %40, %18, %13
  %42 = load i1, ptr %3, align 1
  ret i1 %42
}