; Function Attrs: nounwind uwtable
define hidden zeroext i1 @SDL_GetSurfaceBlendMode_REAL(ptr noundef readonly captures(address_is_null) %0, ptr noundef writeonly captures(address_is_null) %1) local_unnamed_addr #2 {
  %.not = icmp eq ptr %1, null
  br i1 %.not, label %4, label %3

3:                                                ; preds = %2
  store i32 2147483647, ptr %1, align 4
  br label %4

4:                                                ; preds = %3, %2
  %.not.i = icmp eq ptr %0, null
  br i1 %.not.i, label %SDL_SurfaceValid.exit.thread, label %SDL_SurfaceValid.exit

SDL_SurfaceValid.exit:                            ; preds = %4
  %5 = getelementptr inbounds nuw i8, ptr %0, i64 40
  %6 = load ptr, ptr %5, align 8
  %7 = icmp eq ptr %6, @SDL_surface_magic
  br i1 %7, label %9, label %SDL_SurfaceValid.exit.thread

SDL_SurfaceValid.exit.thread:                     ; preds = %4, %SDL_SurfaceValid.exit
  %8 = tail call zeroext i1 (ptr, ...) @SDL_SetError_REAL(ptr noundef nonnull @.str, ptr noundef nonnull @.str.5) #10
  br label %21

9:                                                ; preds = %SDL_SurfaceValid.exit
  br i1 %.not, label %21, label %10

10:                                               ; preds = %9
  %11 = getelementptr inbounds nuw i8, ptr %0, i64 256
  %12 = load i32, ptr %11, align 8
  %13 = and i32 %12, 1008
  switch i32 %13, label %20 [
    i32 16, label %14
    i32 32, label %15
    i32 64, label %16
    i32 128, label %17
    i32 256, label %18
    i32 512, label %19
  ]

14:                                               ; preds = %10
  store i32 1, ptr %1, align 4
  br label %21

15:                                               ; preds = %10
  store i32 16, ptr %1, align 4
  br label %21

16:                                               ; preds = %10
  store i32 2, ptr %1, align 4
  br label %21

17:                                               ; preds = %10
  store i32 32, ptr %1, align 4
  br label %21

18:                                               ; preds = %10
  store i32 4, ptr %1, align 4
  br label %21

19:                                               ; preds = %10
  store i32 8, ptr %1, align 4
  br label %21

20:                                               ; preds = %10
  store i32 0, ptr %1, align 4
  br label %21

21:                                               ; preds = %14, %15, %16, %17, %18, %19, %20, %9, %SDL_SurfaceValid.exit.thread
  %.0 = phi i1 [ %8, %SDL_SurfaceValid.exit.thread ], [ true, %9 ], [ true, %20 ], [ true, %19 ], [ true, %18 ], [ true, %17 ], [ true, %16 ], [ true, %15 ], [ true, %14 ]
  ret i1 %.0
}